Certificate:
    Data:
        Version: 3 (0x2)
        Serial Number: 2 (0x2)
    Signature Algorithm: md5WithRSAEncryption
        Issuer: C=KO, CN=KAOS SYSTEM, L=Seoul, O=KAONI CO., LTD., ST=Seoul/emailAddress=kaos@kaoni.com, OU=Servers
        Validity
            Not Before: May 26 04:33:39 2014 GMT
            Not After : May 25 04:33:39 2019 GMT
        Subject: C=KO, CN=KAOS SERVER, L=Seoul, O=KAONI CO., LTD., ST=Seoul, OU=Servers
        Subject Public Key Info:
            Public Key Algorithm: rsaEncryption
                Public-Key: (1024 bit)
                Modulus:
                    00:a7:7a:7a:2e:b9:42:96:37:53:47:50:a7:20:cb:
                    e8:32:68:b4:39:67:8a:ad:85:ec:d0:6b:6a:56:47:
                    14:a5:f2:6a:f5:f5:2f:71:0f:6b:9e:4c:b4:67:ba:
                    2a:3f:45:e3:c1:7a:81:11:a3:6a:79:00:6e:25:65:
                    6e:97:ba:e2:05:11:2a:fd:77:07:b3:72:7d:0f:99:
                    e8:30:74:3a:24:a4:1b:39:a0:a1:8e:fc:8f:d9:6f:
                    49:4d:b2:7a:2f:e8:d3:e7:e4:22:75:bd:01:91:c1:
                    46:87:14:8b:5f:1a:8a:9e:f0:22:90:c5:be:64:4b:
                    d2:ed:7d:2c:55:d6:82:f7:e5
                Exponent: 65537 (0x10001)
        X509v3 extensions:
            X509v3 Basic Constraints: 
                CA:FALSE
            X509v3 Subject Key Identifier: 
                15:3C:01:09:88:EB:77:DA:45:8E:C9:41:B0:A7:10:21:8B:86:65:78
            X509v3 Authority Key Identifier: 
                keyid:12:F1:6D:87:C3:9A:8F:39:58:24:02:91:E7:33:7A:A5:EE:E2:E7:CB
                DirName:/C=KO/CN=KAOS SYSTEM/L=Seoul/O=KAONI CO., LTD./ST=Seoul/emailAddress=kaos@kaoni.com/OU=Servers
                serial:A1:87:D6:6B:3A:9C:CA:4C

    Signature Algorithm: md5WithRSAEncryption
         59:40:11:2d:8e:c9:2b:30:79:ad:b9:84:99:6a:59:d3:67:5b:
         51:a9:03:0d:69:f1:d8:2c:74:41:2b:23:f8:c3:dd:e8:c0:be:
         9a:03:42:f3:c1:f1:4a:4b:fa:65:c6:c0:a3:79:43:a1:11:6b:
         b6:f3:5c:42:18:e1:6d:26:de:72:ba:be:ab:4a:33:d6:51:17:
         fa:09:d4:49:ad:6f:bc:04:2f:3b:07:d6:44:32:13:36:b9:2b:
         61:8e:03:bf:0b:cc:d3:43:18:fa:e9:e2:c2:2d:03:cb:e1:81:
         3e:10:d4:46:5c:24:d2:e4:15:48:de:e7:87:04:6b:49:59:cf:
         73:88:a3:49:2d:30:b9:03:54:e2:5a:f7:e1:d1:47:d3:8a:fd:
         8e:f0:e0:d8:32:02:67:61:5c:41:bb:36:3c:1d:23:55:cf:3f:
         59:c7:ff:c0:8f:6c:93:50:e7:5e:30:e9:d2:a2:87:ce:ff:0f:
         59:4f:bf:d2:d2:6b:8d:0b:ce:0b:b9:19:0d:b0:ef:e0:f6:0d:
         68:2f:31:99:80:85:c1:77:c2:74:58:55:53:e4:b7:29:8e:74:
         b3:0a:0f:74:f6:d0:3a:45:03:f8:b4:9f:80:eb:f6:52:43:be:
         b7:08:aa:84:18:67:59:d4:8f:2a:e2:16:4a:64:fb:4f:64:93:
         68:80:b6:1f
-----BEGIN CERTIFICATE-----
MIID6TCCAtGgAwIBAgIBAjANBgkqhkiG9w0BAQQFADCBjjELMAkGA1UEBhMCS08x
FDASBgNVBAMTC0tBT1MgU1lTVEVNMQ4wDAYDVQQHEwVTZW91bDEYMBYGA1UEChMP
S0FPTkkgQ08uLCBMVEQuMQ4wDAYDVQQIEwVTZW91bDEdMBsGCSqGSIb3DQEJARYO
a2Fvc0BrYW9uaS5jb20xEDAOBgNVBAsTB1NlcnZlcnMwHhcNMTQwNTI2MDQzMzM5
WhcNMTkwNTI1MDQzMzM5WjBvMQswCQYDVQQGEwJLTzEUMBIGA1UEAxMLS0FPUyBT
RVJWRVIxDjAMBgNVBAcTBVNlb3VsMRgwFgYDVQQKEw9LQU9OSSBDTy4sIExURC4x
DjAMBgNVBAgTBVNlb3VsMRAwDgYDVQQLEwdTZXJ2ZXJzMIGfMA0GCSqGSIb3DQEB
AQUAA4GNADCBiQKBgQCnenouuUKWN1NHUKcgy+gyaLQ5Z4qthezQa2pWRxSl8mr1
9S9xD2ueTLRnuio/RePBeoERo2p5AG4lZW6XuuIFESr9dwezcn0PmegwdDokpBs5
oKGO/I/Zb0lNsnov6NPn5CJ1vQGRwUaHFItfGoqe8CKQxb5kS9LtfSxV1oL35QID
AQABo4HzMIHwMAkGA1UdEwQCMAAwHQYDVR0OBBYEFBU8AQmI63faRY7JQbCnECGL
hmV4MIHDBgNVHSMEgbswgbiAFBLxbYfDmo85WCQCkeczeqXu4ufLoYGUpIGRMIGO
MQswCQYDVQQGEwJLTzEUMBIGA1UEAxMLS0FPUyBTWVNURU0xDjAMBgNVBAcTBVNl
b3VsMRgwFgYDVQQKEw9LQU9OSSBDTy4sIExURC4xDjAMBgNVBAgTBVNlb3VsMR0w
GwYJKoZIhvcNAQkBFg5rYW9zQGthb25pLmNvbTEQMA4GA1UECxMHU2VydmVyc4IJ
AKGH1ms6nMpMMA0GCSqGSIb3DQEBBAUAA4IBAQBZQBEtjskrMHmtuYSZalnTZ1tR
qQMNafHYLHRBKyP4w93owL6aA0LzwfFKS/plxsCjeUOhEWu281xCGOFtJt5yur6r
SjPWURf6CdRJrW+8BC87B9ZEMhM2uSthjgO/C8zTQxj66eLCLQPL4YE+ENRGXCTS
5BVI3ueHBGtJWc9ziKNJLTC5A1TiWvfh0UfTiv2O8ODYMgJnYVxBuzY8HSNVzz9Z
x//Aj2yTUOdeMOnSoofO/w9ZT7/S0muNC84LuRkNsO/g9g1oLzGZgIXBd8J0WFVT
5LcpjnSzCg909tA6RQP4tJ+A6/ZSQ763CKqEGGdZ1I8q4hZKZPtPZJNogLYf
-----END CERTIFICATE-----
